; Function Attrs: inlinehint nounwind uwtable
define internal fastcc void @pmix_obj_run_destructors(ptr noundef %0) unnamed_addr #4 {
  %2 = getelementptr inbounds nuw i8, ptr %0, i64 40
  %3 = load ptr, ptr %2, align 8, !tbaa !13
  %4 = getelementptr inbounds nuw i8, ptr %3, i64 48
  %5 = load ptr, ptr %4, align 8, !tbaa !36
  %6 = load ptr, ptr %5, align 8, !tbaa !18
  %.not6 = icmp eq ptr %6, null
  br i1 %.not6, label %._crit_edge, label %.lr.ph

.lr.ph:                                           ; preds = %1, %.lr.ph
  %7 = phi ptr [ %9, %.lr.ph ], [ %6, %1 ]
  %.07 = phi ptr [ %8, %.lr.ph ], [ %5, %1 ]
  tail call void %7(ptr noundef %0) #16
  %8 = getelementptr inbounds nuw i8, ptr %.07, i64 8
  %9 = load ptr, ptr %8, align 8, !tbaa !18
  %.not = icmp eq ptr %9, null
  br i1 %.not, label %._crit_edge, label %.lr.ph, !llvm.loop !37

._crit_edge:                                      ; preds = %.lr.ph, %1
  ret void
}